; Function Attrs: mustprogress uwtable
define hidden void @_ZNK7datalog10table_base13row_interface8get_factER7svectorImjE(ptr noundef nonnull align 8 dereferenceable(16) %0, ptr noundef nonnull align 8 dereferenceable(8) %1) unnamed_addr #3 align 2 {
  %3 = load ptr, ptr %1, align 8, !tbaa !328
  %.not.i = icmp eq ptr %3, null
  br i1 %.not.i, label %_ZN6vectorImLb0EjE5resetEv.exit, label %4

4:                                                ; preds = %2
  %5 = getelementptr inbounds i8, ptr %3, i64 -4
  store i32 0, ptr %5, align 4, !tbaa !12
  br label %_ZN6vectorImLb0EjE5resetEv.exit

_ZN6vectorImLb0EjE5resetEv.exit:                  ; preds = %2, %4
  %6 = getelementptr inbounds nuw i8, ptr %0, i64 8
  %7 = load ptr, ptr %6, align 8, !tbaa !398
  %8 = getelementptr inbounds nuw i8, ptr %7, i64 16
  %9 = load ptr, ptr %8, align 8, !tbaa !328
  %10 = icmp eq ptr %9, null
  br i1 %10, label %._crit_edge, label %_ZNK7datalog10table_base13row_interface4sizeEv.exit

_ZNK7datalog10table_base13row_interface4sizeEv.exit: ; preds = %_ZN6vectorImLb0EjE5resetEv.exit
  %11 = getelementptr inbounds i8, ptr %9, i64 -4
  %12 = load i32, ptr %11, align 4, !tbaa !12
  %.not = icmp eq i32 %12, 0
  br i1 %.not, label %._crit_edge, label %.lr.ph

._crit_edge:                                      ; preds = %_ZN6vectorImLb0EjE9push_backEOm.exit, %_ZN6vectorImLb0EjE5resetEv.exit, %_ZNK7datalog10table_base13row_interface4sizeEv.exit
  ret void

.lr.ph:                                           ; preds = %_ZNK7datalog10table_base13row_interface4sizeEv.exit, %_ZN6vectorImLb0EjE9push_backEOm.exit
  %.06 = phi i32 [ %32, %_ZN6vectorImLb0EjE9push_backEOm.exit ], [ 0, %_ZNK7datalog10table_base13row_interface4sizeEv.exit ]
  %13 = load ptr, ptr %0, align 8, !tbaa !3
  %14 = getelementptr inbounds nuw i8, ptr %13, i64 16
  %15 = load ptr, ptr %14, align 8
  %16 = tail call noundef i64 %15(ptr noundef nonnull align 8 dereferenceable(16) %0, i32 noundef %.06)
  %17 = load ptr, ptr %1, align 8, !tbaa !328
  %18 = icmp eq ptr %17, null
  br i1 %18, label %25, label %19

19:                                               ; preds = %.lr.ph
  %20 = getelementptr inbounds i8, ptr %17, i64 -4
  %21 = load i32, ptr %20, align 4, !tbaa !12
  %22 = getelementptr inbounds i8, ptr %17, i64 -8
  %23 = load i32, ptr %22, align 4, !tbaa !12
  %24 = icmp eq i32 %21, %23
  br i1 %24, label %25, label %_ZN6vectorImLb0EjE9push_backEOm.exit

25:                                               ; preds = %19, %.lr.ph
  tail call void @_ZN6vectorImLb0EjE13expand_vectorEv(ptr noundef nonnull align 8 dereferenceable(8) %1)
  %.pre.i = load ptr, ptr %1, align 8, !tbaa !328
  %.phi.trans.insert.i = getelementptr inbounds i8, ptr %.pre.i, i64 -4
  %.pre2.i = load i32, ptr %.phi.trans.insert.i, align 4, !tbaa !12
  br label %_ZN6vectorImLb0EjE9push_backEOm.exit

_ZN6vectorImLb0EjE9push_backEOm.exit:             ; preds = %19, %25
  %26 = phi i32 [ %.pre2.i, %25 ], [ %21, %19 ]
  %27 = phi ptr [ %.pre.i, %25 ], [ %17, %19 ]
  %28 = getelementptr inbounds i8, ptr %27, i64 -4
  %29 = zext i32 %26 to i64
  %30 = getelementptr inbounds nuw i64, ptr %27, i64 %29
  store i64 %16, ptr %30, align 8, !tbaa !332
  %31 = add i32 %26, 1
  store i32 %31, ptr %28, align 4, !tbaa !12
  %32 = add nuw i32 %.06, 1
  %exitcond.not = icmp eq i32 %32, %12
  br i1 %exitcond.not, label %._crit_edge, label %.lr.ph, !llvm.loop !401
}